; Function Attrs: nounwind uwtable
define dso_local i32 @repo_config_get_string_multi(ptr noundef %0, ptr noundef %1, ptr noundef writeonly captures(none) %2) local_unnamed_addr #0 {
  %4 = alloca %struct.config_set_element, align 8
  %5 = alloca ptr, align 8
  tail call fastcc void @git_config_check_init(ptr noundef %0)
  %6 = getelementptr inbounds nuw i8, ptr %0, i64 368
  %7 = load ptr, ptr %6, align 8, !tbaa !126
  call void @llvm.lifetime.start.p0(i64 64, ptr nonnull %4) #30
  call void @llvm.lifetime.start.p0(i64 8, ptr nonnull %5) #30
  %8 = call i32 @git_config_parse_key(ptr noundef %1, ptr noundef nonnull %5, ptr noundef null)
  %.not.i.i.i = icmp eq i32 %8, 0
  br i1 %.not.i.i.i, label %9, label %configset_find_element.exit.i.i

configset_find_element.exit.i.i:                  ; preds = %3
  call void @llvm.lifetime.end.p0(i64 8, ptr nonnull %5) #30
  call void @llvm.lifetime.end.p0(i64 64, ptr nonnull %4) #30
  br label %git_configset_get_string_multi.exit

9:                                                ; preds = %3
  %10 = load ptr, ptr %5, align 8, !tbaa !17
  %11 = tail call i32 @strhash(ptr noundef %10) #30
  %12 = getelementptr inbounds nuw i8, ptr %4, i64 8
  store i32 %11, ptr %12, align 8, !tbaa !114
  store ptr null, ptr %4, align 8, !tbaa !115
  %13 = getelementptr inbounds nuw i8, ptr %4, i64 16
  store ptr %10, ptr %13, align 8, !tbaa !108
  %14 = call ptr @hashmap_get(ptr noundef %7, ptr noundef nonnull %4, ptr noundef null) #30
  call void @free(ptr noundef %10) #30
  call void @llvm.lifetime.end.p0(i64 8, ptr nonnull %5) #30
  call void @llvm.lifetime.end.p0(i64 64, ptr nonnull %4) #30
  %.not6.i.i = icmp eq ptr %14, null
  br i1 %.not6.i.i, label %git_configset_get_string_multi.exit, label %15

15:                                               ; preds = %9
  %16 = getelementptr inbounds nuw i8, ptr %14, i64 24
  store ptr %16, ptr %2, align 8, !tbaa !125
  %17 = call i32 @for_each_string_list(ptr noundef nonnull %16, ptr noundef nonnull @check_multi_string, ptr noundef %1) #30
  br label %git_configset_get_string_multi.exit

git_configset_get_string_multi.exit:              ; preds = %configset_find_element.exit.i.i, %9, %15
  %.0.i = phi i32 [ %17, %15 ], [ 1, %9 ], [ %8, %configset_find_element.exit.i.i ]
  ret i32 %.0.i
}